; Function Attrs: mustprogress nofree norecurse nounwind willreturn memory(readwrite, inaccessiblemem: none) uwtable
define void @_ZN7rocksdb19ThreadStatusUpdater17SetEnableTrackingEb(ptr noundef nonnull readnone align 8 captures(none) dereferenceable(216) %0, i1 noundef zeroext %1) local_unnamed_addr #8 align 2 personality ptr @__gxx_personality_v0 {
  %3 = tail call align 8 ptr @llvm.threadlocal.address.p0(ptr align 8 @_ZN7rocksdb19ThreadStatusUpdater19thread_status_data_E)
  %4 = load ptr, ptr %3, align 8, !tbaa !14
  %5 = icmp eq ptr %4, null
  br i1 %5, label %8, label %6

6:                                                ; preds = %2
  %7 = zext i1 %1 to i8
  store atomic i8 %7, ptr %4 monotonic, align 1
  br label %8

8:                                                ; preds = %2, %6
  ret void
}